
bomb:     file format elf64-x86-64


Disassembly of section .init:

0000000000400b30 <_init>:
  400b30:	48 83 ec 08          	sub    $0x8,%rsp
  400b34:	48 8b 05 bd 24 20 00 	mov    0x2024bd(%rip),%rax        # 602ff8 <__gmon_start__>
  400b3b:	48 85 c0             	test   %rax,%rax
  400b3e:	74 02                	je     400b42 <_init+0x12>
  400b40:	ff d0                	callq  *%rax
  400b42:	48 83 c4 08          	add    $0x8,%rsp
  400b46:	c3                   	retq   

Disassembly of section .plt:

0000000000400b50 <.plt>:
  400b50:	ff 35 b2 24 20 00    	pushq  0x2024b2(%rip)        # 603008 <_GLOBAL_OFFSET_TABLE_+0x8>
  400b56:	ff 25 b4 24 20 00    	jmpq   *0x2024b4(%rip)        # 603010 <_GLOBAL_OFFSET_TABLE_+0x10>
  400b5c:	0f 1f 40 00          	nopl   0x0(%rax)

0000000000400b60 <getenv@plt>:
  400b60:	ff 25 b2 24 20 00    	jmpq   *0x2024b2(%rip)        # 603018 <getenv@GLIBC_2.2.5>
  400b66:	68 00 00 00 00       	pushq  $0x0
  400b6b:	e9 e0 ff ff ff       	jmpq   400b50 <.plt>

0000000000400b70 <__errno_location@plt>:
  400b70:	ff 25 aa 24 20 00    	jmpq   *0x2024aa(%rip)        # 603020 <__errno_location@GLIBC_2.2.5>
  400b76:	68 01 00 00 00       	pushq  $0x1
  400b7b:	e9 d0 ff ff ff       	jmpq   400b50 <.plt>

0000000000400b80 <strcpy@plt>:
  400b80:	ff 25 a2 24 20 00    	jmpq   *0x2024a2(%rip)        # 603028 <strcpy@GLIBC_2.2.5>
  400b86:	68 02 00 00 00       	pushq  $0x2
  400b8b:	e9 c0 ff ff ff       	jmpq   400b50 <.plt>

0000000000400b90 <puts@plt>:
  400b90:	ff 25 9a 24 20 00    	jmpq   *0x20249a(%rip)        # 603030 <puts@GLIBC_2.2.5>
  400b96:	68 03 00 00 00       	pushq  $0x3
  400b9b:	e9 b0 ff ff ff       	jmpq   400b50 <.plt>

0000000000400ba0 <write@plt>:
  400ba0:	ff 25 92 24 20 00    	jmpq   *0x202492(%rip)        # 603038 <write@GLIBC_2.2.5>
  400ba6:	68 04 00 00 00       	pushq  $0x4
  400bab:	e9 a0 ff ff ff       	jmpq   400b50 <.plt>

0000000000400bb0 <fclose@plt>:
  400bb0:	ff 25 8a 24 20 00    	jmpq   *0x20248a(%rip)        # 603040 <fclose@GLIBC_2.2.5>
  400bb6:	68 05 00 00 00       	pushq  $0x5
  400bbb:	e9 90 ff ff ff       	jmpq   400b50 <.plt>

0000000000400bc0 <system@plt>:
  400bc0:	ff 25 82 24 20 00    	jmpq   *0x202482(%rip)        # 603048 <system@GLIBC_2.2.5>
  400bc6:	68 06 00 00 00       	pushq  $0x6
  400bcb:	e9 80 ff ff ff       	jmpq   400b50 <.plt>

0000000000400bd0 <printf@plt>:
  400bd0:	ff 25 7a 24 20 00    	jmpq   *0x20247a(%rip)        # 603050 <printf@GLIBC_2.2.5>
  400bd6:	68 07 00 00 00       	pushq  $0x7
  400bdb:	e9 70 ff ff ff       	jmpq   400b50 <.plt>

0000000000400be0 <rewind@plt>:
  400be0:	ff 25 72 24 20 00    	jmpq   *0x202472(%rip)        # 603058 <rewind@GLIBC_2.2.5>
  400be6:	68 08 00 00 00       	pushq  $0x8
  400beb:	e9 60 ff ff ff       	jmpq   400b50 <.plt>

0000000000400bf0 <dup@plt>:
  400bf0:	ff 25 6a 24 20 00    	jmpq   *0x20246a(%rip)        # 603060 <dup@GLIBC_2.2.5>
  400bf6:	68 09 00 00 00       	pushq  $0x9
  400bfb:	e9 50 ff ff ff       	jmpq   400b50 <.plt>

0000000000400c00 <close@plt>:
  400c00:	ff 25 62 24 20 00    	jmpq   *0x202462(%rip)        # 603068 <close@GLIBC_2.2.5>
  400c06:	68 0a 00 00 00       	pushq  $0xa
  400c0b:	e9 40 ff ff ff       	jmpq   400b50 <.plt>

0000000000400c10 <fputc@plt>:
  400c10:	ff 25 5a 24 20 00    	jmpq   *0x20245a(%rip)        # 603070 <fputc@GLIBC_2.2.5>
  400c16:	68 0b 00 00 00       	pushq  $0xb
  400c1b:	e9 30 ff ff ff       	jmpq   400b50 <.plt>

0000000000400c20 <fgets@plt>:
  400c20:	ff 25 52 24 20 00    	jmpq   *0x202452(%rip)        # 603078 <fgets@GLIBC_2.2.5>
  400c26:	68 0c 00 00 00       	pushq  $0xc
  400c2b:	e9 20 ff ff ff       	jmpq   400b50 <.plt>

0000000000400c30 <tmpfile@plt>:
  400c30:	ff 25 4a 24 20 00    	jmpq   *0x20244a(%rip)        # 603080 <tmpfile@GLIBC_2.2.5>
  400c36:	68 0d 00 00 00       	pushq  $0xd
  400c3b:	e9 10 ff ff ff       	jmpq   400b50 <.plt>

0000000000400c40 <signal@plt>:
  400c40:	ff 25 42 24 20 00    	jmpq   *0x202442(%rip)        # 603088 <signal@GLIBC_2.2.5>
  400c46:	68 0e 00 00 00       	pushq  $0xe
  400c4b:	e9 00 ff ff ff       	jmpq   400b50 <.plt>

0000000000400c50 <gethostbyname@plt>:
  400c50:	ff 25 3a 24 20 00    	jmpq   *0x20243a(%rip)        # 603090 <gethostbyname@GLIBC_2.2.5>
  400c56:	68 0f 00 00 00       	pushq  $0xf
  400c5b:	e9 f0 fe ff ff       	jmpq   400b50 <.plt>

0000000000400c60 <fprintf@plt>:
  400c60:	ff 25 32 24 20 00    	jmpq   *0x202432(%rip)        # 603098 <fprintf@GLIBC_2.2.5>
  400c66:	68 10 00 00 00       	pushq  $0x10
  400c6b:	e9 e0 fe ff ff       	jmpq   400b50 <.plt>

0000000000400c70 <inet_pton@plt>:
  400c70:	ff 25 2a 24 20 00    	jmpq   *0x20242a(%rip)        # 6030a0 <inet_pton@GLIBC_2.2.5>
  400c76:	68 11 00 00 00       	pushq  $0x11
  400c7b:	e9 d0 fe ff ff       	jmpq   400b50 <.plt>

0000000000400c80 <fflush@plt>:
  400c80:	ff 25 22 24 20 00    	jmpq   *0x202422(%rip)        # 6030a8 <fflush@GLIBC_2.2.5>
  400c86:	68 12 00 00 00       	pushq  $0x12
  400c8b:	e9 c0 fe ff ff       	jmpq   400b50 <.plt>

0000000000400c90 <__isoc99_sscanf@plt>:
  400c90:	ff 25 1a 24 20 00    	jmpq   *0x20241a(%rip)        # 6030b0 <__isoc99_sscanf@GLIBC_2.7>
  400c96:	68 13 00 00 00       	pushq  $0x13
  400c9b:	e9 b0 fe ff ff       	jmpq   400b50 <.plt>

0000000000400ca0 <bcopy@plt>:
  400ca0:	ff 25 12 24 20 00    	jmpq   *0x202412(%rip)        # 6030b8 <bcopy@GLIBC_2.2.5>
  400ca6:	68 14 00 00 00       	pushq  $0x14
  400cab:	e9 a0 fe ff ff       	jmpq   400b50 <.plt>

0000000000400cb0 <cuserid@plt>:
  400cb0:	ff 25 0a 24 20 00    	jmpq   *0x20240a(%rip)        # 6030c0 <cuserid@GLIBC_2.2.5>
  400cb6:	68 15 00 00 00       	pushq  $0x15
  400cbb:	e9 90 fe ff ff       	jmpq   400b50 <.plt>

0000000000400cc0 <fopen@plt>:
  400cc0:	ff 25 02 24 20 00    	jmpq   *0x202402(%rip)        # 6030c8 <fopen@GLIBC_2.2.5>
  400cc6:	68 16 00 00 00       	pushq  $0x16
  400ccb:	e9 80 fe ff ff       	jmpq   400b50 <.plt>

0000000000400cd0 <strcat@plt>:
  400cd0:	ff 25 fa 23 20 00    	jmpq   *0x2023fa(%rip)        # 6030d0 <strcat@GLIBC_2.2.5>
  400cd6:	68 17 00 00 00       	pushq  $0x17
  400cdb:	e9 70 fe ff ff       	jmpq   400b50 <.plt>

0000000000400ce0 <sprintf@plt>:
  400ce0:	ff 25 f2 23 20 00    	jmpq   *0x2023f2(%rip)        # 6030d8 <sprintf@GLIBC_2.2.5>
  400ce6:	68 18 00 00 00       	pushq  $0x18
  400ceb:	e9 60 fe ff ff       	jmpq   400b50 <.plt>

0000000000400cf0 <exit@plt>:
  400cf0:	ff 25 ea 23 20 00    	jmpq   *0x2023ea(%rip)        # 6030e0 <exit@GLIBC_2.2.5>
  400cf6:	68 19 00 00 00       	pushq  $0x19
  400cfb:	e9 50 fe ff ff       	jmpq   400b50 <.plt>

0000000000400d00 <connect@plt>:
  400d00:	ff 25 e2 23 20 00    	jmpq   *0x2023e2(%rip)        # 6030e8 <connect@GLIBC_2.2.5>
  400d06:	68 1a 00 00 00       	pushq  $0x1a
  400d0b:	e9 40 fe ff ff       	jmpq   400b50 <.plt>

0000000000400d10 <fwrite@plt>:
  400d10:	ff 25 da 23 20 00    	jmpq   *0x2023da(%rip)        # 6030f0 <fwrite@GLIBC_2.2.5>
  400d16:	68 1b 00 00 00       	pushq  $0x1b
  400d1b:	e9 30 fe ff ff       	jmpq   400b50 <.plt>

0000000000400d20 <sleep@plt>:
  400d20:	ff 25 d2 23 20 00    	jmpq   *0x2023d2(%rip)        # 6030f8 <sleep@GLIBC_2.2.5>
  400d26:	68 1c 00 00 00       	pushq  $0x1c
  400d2b:	e9 20 fe ff ff       	jmpq   400b50 <.plt>

0000000000400d30 <__ctype_b_loc@plt>:
  400d30:	ff 25 ca 23 20 00    	jmpq   *0x2023ca(%rip)        # 603100 <__ctype_b_loc@GLIBC_2.3>
  400d36:	68 1d 00 00 00       	pushq  $0x1d
  400d3b:	e9 10 fe ff ff       	jmpq   400b50 <.plt>

0000000000400d40 <socket@plt>:
  400d40:	ff 25 c2 23 20 00    	jmpq   *0x2023c2(%rip)        # 603108 <socket@GLIBC_2.2.5>
  400d46:	68 1e 00 00 00       	pushq  $0x1e
  400d4b:	e9 00 fe ff ff       	jmpq   400b50 <.plt>

Disassembly of section .text:

0000000000400d50 <_start>:
  400d50:	31 ed                	xor    %ebp,%ebp
  400d52:	49 89 d1             	mov    %rdx,%r9
  400d55:	5e                   	pop    %rsi
  400d56:	48 89 e2             	mov    %rsp,%rdx
  400d59:	48 83 e4 f0          	and    $0xfffffffffffffff0,%rsp
  400d5d:	50                   	push   %rax
  400d5e:	54                   	push   %rsp
  400d5f:	49 c7 c0 c0 1c 40 00 	mov    $0x401cc0,%r8
  400d66:	48 c7 c1 50 1c 40 00 	mov    $0x401c50,%rcx
  400d6d:	48 c7 c7 46 0e 40 00 	mov    $0x400e46,%rdi
  400d74:	ff 15 76 22 20 00    	callq  *0x202276(%rip)        # 602ff0 <__libc_start_main@GLIBC_2.2.5>
  400d7a:	f4                   	hlt    
  400d7b:	0f 1f 44 00 00       	nopl   0x0(%rax,%rax,1)

0000000000400d80 <deregister_tm_clones>:
  400d80:	b8 4f 35 60 00       	mov    $0x60354f,%eax
  400d85:	55                   	push   %rbp
  400d86:	48 2d 48 35 60 00    	sub    $0x603548,%rax
  400d8c:	48 83 f8 0e          	cmp    $0xe,%rax
  400d90:	48 89 e5             	mov    %rsp,%rbp
  400d93:	76 1b                	jbe    400db0 <deregister_tm_clones+0x30>
  400d95:	b8 00 00 00 00       	mov    $0x0,%eax
  400d9a:	48 85 c0             	test   %rax,%rax
  400d9d:	74 11                	je     400db0 <deregister_tm_clones+0x30>
  400d9f:	5d                   	pop    %rbp
  400da0:	bf 48 35 60 00       	mov    $0x603548,%edi
  400da5:	ff e0                	jmpq   *%rax
  400da7:	66 0f 1f 84 00 00 00 	nopw   0x0(%rax,%rax,1)
  400dae:	00 00 
  400db0:	5d                   	pop    %rbp
  400db1:	c3                   	retq   
  400db2:	0f 1f 40 00          	nopl   0x0(%rax)
  400db6:	66 2e 0f 1f 84 00 00 	nopw   %cs:0x0(%rax,%rax,1)
  400dbd:	00 00 00 

0000000000400dc0 <register_tm_clones>:
  400dc0:	be 48 35 60 00       	mov    $0x603548,%esi
  400dc5:	55                   	push   %rbp
  400dc6:	48 81 ee 48 35 60 00 	sub    $0x603548,%rsi
  400dcd:	48 c1 fe 03          	sar    $0x3,%rsi
  400dd1:	48 89 e5             	mov    %rsp,%rbp
  400dd4:	48 89 f0             	mov    %rsi,%rax
  400dd7:	48 c1 e8 3f          	shr    $0x3f,%rax
  400ddb:	48 01 c6             	add    %rax,%rsi
  400dde:	48 d1 fe             	sar    %rsi
  400de1:	74 15                	je     400df8 <register_tm_clones+0x38>
  400de3:	b8 00 00 00 00       	mov    $0x0,%eax
  400de8:	48 85 c0             	test   %rax,%rax
  400deb:	74 0b                	je     400df8 <register_tm_clones+0x38>
  400ded:	5d                   	pop    %rbp
  400dee:	bf 48 35 60 00       	mov    $0x603548,%edi
  400df3:	ff e0                	jmpq   *%rax
  400df5:	0f 1f 00             	nopl   (%rax)
  400df8:	5d                   	pop    %rbp
  400df9:	c3                   	retq   
  400dfa:	66 0f 1f 44 00 00    	nopw   0x0(%rax,%rax,1)

0000000000400e00 <__do_global_dtors_aux>:
  400e00:	80 3d 71 27 20 00 00 	cmpb   $0x0,0x202771(%rip)        # 603578 <completed.6972>
  400e07:	75 11                	jne    400e1a <__do_global_dtors_aux+0x1a>
  400e09:	55                   	push   %rbp
  400e0a:	48 89 e5             	mov    %rsp,%rbp
  400e0d:	e8 6e ff ff ff       	callq  400d80 <deregister_tm_clones>
  400e12:	5d                   	pop    %rbp
  400e13:	c6 05 5e 27 20 00 01 	movb   $0x1,0x20275e(%rip)        # 603578 <completed.6972>
  400e1a:	f3 c3                	repz retq 
  400e1c:	0f 1f 40 00          	nopl   0x0(%rax)

0000000000400e20 <frame_dummy>:
  400e20:	bf 18 2e 60 00       	mov    $0x602e18,%edi
  400e25:	48 83 3f 00          	cmpq   $0x0,(%rdi)
  400e29:	75 05                	jne    400e30 <frame_dummy+0x10>
  400e2b:	eb 93                	jmp    400dc0 <register_tm_clones>
  400e2d:	0f 1f 00             	nopl   (%rax)
  400e30:	b8 00 00 00 00       	mov    $0x0,%eax
  400e35:	48 85 c0             	test   %rax,%rax
  400e38:	74 f1                	je     400e2b <frame_dummy+0xb>
  400e3a:	55                   	push   %rbp
  400e3b:	48 89 e5             	mov    %rsp,%rbp
  400e3e:	ff d0                	callq  *%rax
  400e40:	5d                   	pop    %rbp
  400e41:	e9 7a ff ff ff       	jmpq   400dc0 <register_tm_clones>

0000000000400e46 <main>:
  400e46:	53                   	push   %rbx
  400e47:	83 ff 01             	cmp    $0x1,%edi
  400e4a:	0f 84 9e 00 00 00    	je     400eee <main+0xa8>
  400e50:	48 89 f3             	mov    %rsi,%rbx
  400e53:	83 ff 02             	cmp    $0x2,%edi
  400e56:	0f 85 c2 00 00 00    	jne    400f1e <main+0xd8>
  400e5c:	48 8b 7e 08          	mov    0x8(%rsi),%rdi
  400e60:	48 8d 35 f3 11 00 00 	lea    0x11f3(%rip),%rsi        # 40205a <array.3074+0x22a>
  400e67:	e8 54 fe ff ff       	callq  400cc0 <fopen@plt>
  400e6c:	48 89 05 0d 27 20 00 	mov    %rax,0x20270d(%rip)        # 603580 <infile>
  400e73:	48 85 c0             	test   %rax,%rax
  400e76:	0f 84 85 00 00 00    	je     400f01 <main+0xbb>
  400e7c:	e8 af 04 00 00       	callq  401330 <initialize_bomb>
  400e81:	48 8d 3d a8 0e 00 00 	lea    0xea8(%rip),%rdi        # 401d30 <_IO_stdin_used+0x60>
  400e88:	e8 03 fd ff ff       	callq  400b90 <puts@plt>
  400e8d:	48 8d 3d dc 0e 00 00 	lea    0xedc(%rip),%rdi        # 401d70 <_IO_stdin_used+0xa0>
  400e94:	e8 f7 fc ff ff       	callq  400b90 <puts@plt>
  400e99:	e8 ed 0b 00 00       	callq  401a8b <read_line>
  400e9e:	48 89 c7             	mov    %rax,%rdi
  400ea1:	e8 96 00 00 00       	callq  400f3c <phase_1>
  400ea6:	e8 e1 0c 00 00       	callq  401b8c <phase_defused>
  400eab:	48 8d 3d ee 0e 00 00 	lea    0xeee(%rip),%rdi        # 401da0 <_IO_stdin_used+0xd0>
  400eb2:	e8 d9 fc ff ff       	callq  400b90 <puts@plt>
  400eb7:	e8 cf 0b 00 00       	callq  401a8b <read_line>
  400ebc:	48 89 c7             	mov    %rax,%rdi
  400ebf:	e8 98 00 00 00       	callq  400f5c <phase_2>
  400ec4:	e8 c3 0c 00 00       	callq  401b8c <phase_defused>
  400ec9:	48 8d 3d 3b 0e 00 00 	lea    0xe3b(%rip),%rdi        # 401d0b <_IO_stdin_used+0x3b>
  400ed0:	e8 bb fc ff ff       	callq  400b90 <puts@plt>
  400ed5:	e8 b1 0b 00 00       	callq  401a8b <read_line>
  400eda:	48 89 c7             	mov    %rax,%rdi
  400edd:	e8 c5 00 00 00       	callq  400fa7 <phase_3>
  400ee2:	e8 a5 0c 00 00       	callq  401b8c <phase_defused>
  400ee7:	b8 00 00 00 00       	mov    $0x0,%eax
  400eec:	5b                   	pop    %rbx
  400eed:	c3                   	retq   
  400eee:	48 8b 05 7b 26 20 00 	mov    0x20267b(%rip),%rax        # 603570 <stdin@@GLIBC_2.2.5>
  400ef5:	48 89 05 84 26 20 00 	mov    %rax,0x202684(%rip)        # 603580 <infile>
  400efc:	e9 7b ff ff ff       	jmpq   400e7c <main+0x36>
  400f01:	48 8b 53 08          	mov    0x8(%rbx),%rdx
  400f05:	48 8b 33             	mov    (%rbx),%rsi
  400f08:	48 8d 3d c5 0d 00 00 	lea    0xdc5(%rip),%rdi        # 401cd4 <_IO_stdin_used+0x4>
  400f0f:	e8 bc fc ff ff       	callq  400bd0 <printf@plt>
  400f14:	bf 08 00 00 00       	mov    $0x8,%edi
  400f19:	e8 d2 fd ff ff       	callq  400cf0 <exit@plt>
  400f1e:	48 8b 36             	mov    (%rsi),%rsi
  400f21:	48 8d 3d c9 0d 00 00 	lea    0xdc9(%rip),%rdi        # 401cf1 <_IO_stdin_used+0x21>
  400f28:	b8 00 00 00 00       	mov    $0x0,%eax
  400f2d:	e8 9e fc ff ff       	callq  400bd0 <printf@plt>
  400f32:	bf 08 00 00 00       	mov    $0x8,%edi
  400f37:	e8 b4 fd ff ff       	callq  400cf0 <exit@plt>

0000000000400f3c <phase_1>:
  400f3c:	48 83 ec 08          	sub    $0x8,%rsp
  400f40:	48 8d 35 89 0e 00 00 	lea    0xe89(%rip),%rsi        # 401dd0 <_IO_stdin_used+0x100>
  400f47:	e8 b2 02 00 00       	callq  4011fe <strings_not_equal>
  400f4c:	85 c0                	test   %eax,%eax
  400f4e:	75 05                	jne    400f55 <phase_1+0x19>
  400f50:	48 83 c4 08          	add    $0x8,%rsp
  400f54:	c3                   	retq   
  400f55:	e8 b4 0a 00 00       	callq  401a0e <explode_bomb>
  400f5a:	eb f4                	jmp    400f50 <phase_1+0x14>

0000000000400f5c <phase_2>:
  400f5c:	55                   	push   %rbp
  400f5d:	53                   	push   %rbx
  400f5e:	48 83 ec 28          	sub    $0x28,%rsp
  400f62:	48 89 e6             	mov    %rsp,%rsi
  400f65:	e8 e0 0a 00 00       	callq  401a4a <read_six_numbers>
  400f6a:	83 3c 24 01          	cmpl   $0x1,(%rsp)
  400f6e:	74 05                	je     400f75 <phase_2+0x19>
  400f70:	e8 99 0a 00 00       	callq  401a0e <explode_bomb>
  400f75:	48 89 e5             	mov    %rsp,%rbp
  400f78:	bb 01 00 00 00       	mov    $0x1,%ebx
  400f7d:	eb 09                	jmp    400f88 <phase_2+0x2c>
  400f7f:	48 83 c5 04          	add    $0x4,%rbp
  400f83:	83 fb 06             	cmp    $0x6,%ebx
  400f86:	74 18                	je     400fa0 <phase_2+0x44>
  400f88:	83 c3 01             	add    $0x1,%ebx
  400f8b:	89 d8                	mov    %ebx,%eax
  400f8d:	0f af 45 00          	imul   0x0(%rbp),%eax
  400f91:	83 e8 01             	sub    $0x1,%eax
  400f94:	39 45 04             	cmp    %eax,0x4(%rbp)
  400f97:	74 e6                	je     400f7f <phase_2+0x23>
  400f99:	e8 70 0a 00 00       	callq  401a0e <explode_bomb>
  400f9e:	eb df                	jmp    400f7f <phase_2+0x23>
  400fa0:	48 83 c4 28          	add    $0x28,%rsp
  400fa4:	5b                   	pop    %rbx
  400fa5:	5d                   	pop    %rbp
  400fa6:	c3                   	retq   

0000000000400fa7 <phase_3>:
  400fa7:	48 83 ec 18          	sub    $0x18,%rsp
  400fab:	48 8d 4c 24 07       	lea    0x7(%rsp),%rcx
  400fb0:	48 8d 54 24 0c       	lea    0xc(%rsp),%rdx
  400fb5:	4c 8d 44 24 08       	lea    0x8(%rsp),%r8
  400fba:	48 8d 35 3e 0e 00 00 	lea    0xe3e(%rip),%rsi        # 401dff <_IO_stdin_used+0x12f>
  400fc1:	b8 00 00 00 00       	mov    $0x0,%eax
  400fc6:	e8 c5 fc ff ff       	callq  400c90 <__isoc99_sscanf@plt>
  400fcb:	83 f8 02             	cmp    $0x2,%eax
  400fce:	7e 1f                	jle    400fef <phase_3+0x48>
  400fd0:	83 7c 24 0c 07       	cmpl   $0x7,0xc(%rsp)
  400fd5:	0f 87 02 01 00 00    	ja     4010dd <phase_3+0x136>
  400fdb:	8b 44 24 0c          	mov    0xc(%rsp),%eax
  400fdf:	48 8d 15 2a 0e 00 00 	lea    0xe2a(%rip),%rdx        # 401e10 <_IO_stdin_used+0x140>
  400fe6:	48 63 04 82          	movslq (%rdx,%rax,4),%rax
  400fea:	48 01 d0             	add    %rdx,%rax
  400fed:	ff e0                	jmpq   *%rax
  400fef:	e8 1a 0a 00 00       	callq  401a0e <explode_bomb>
  400ff4:	eb da                	jmp    400fd0 <phase_3+0x29>
  400ff6:	b8 68 00 00 00       	mov    $0x68,%eax
  400ffb:	81 7c 24 08 7d 01 00 	cmpl   $0x17d,0x8(%rsp)
  401002:	00 
  401003:	0f 84 de 00 00 00    	je     4010e7 <phase_3+0x140>
  401009:	e8 00 0a 00 00       	callq  401a0e <explode_bomb>
  40100e:	b8 68 00 00 00       	mov    $0x68,%eax
  401013:	e9 cf 00 00 00       	jmpq   4010e7 <phase_3+0x140>
  401018:	b8 74 00 00 00       	mov    $0x74,%eax
  40101d:	81 7c 24 08 51 01 00 	cmpl   $0x151,0x8(%rsp)
  401024:	00 
  401025:	0f 84 bc 00 00 00    	je     4010e7 <phase_3+0x140>
  40102b:	e8 de 09 00 00       	callq  401a0e <explode_bomb>
  401030:	b8 74 00 00 00       	mov    $0x74,%eax
  401035:	e9 ad 00 00 00       	jmpq   4010e7 <phase_3+0x140>
  40103a:	b8 75 00 00 00       	mov    $0x75,%eax
  40103f:	81 7c 24 08 5c 01 00 	cmpl   $0x15c,0x8(%rsp)
  401046:	00 
  401047:	0f 84 9a 00 00 00    	je     4010e7 <phase_3+0x140>
  40104d:	e8 bc 09 00 00       	callq  401a0e <explode_bomb>
  401052:	b8 75 00 00 00       	mov    $0x75,%eax
  401057:	e9 8b 00 00 00       	jmpq   4010e7 <phase_3+0x140>
  40105c:	b8 71 00 00 00       	mov    $0x71,%eax
  401061:	81 7c 24 08 11 01 00 	cmpl   $0x111,0x8(%rsp)
  401068:	00 
  401069:	74 7c                	je     4010e7 <phase_3+0x140>
  40106b:	e8 9e 09 00 00       	callq  401a0e <explode_bomb>
  401070:	b8 71 00 00 00       	mov    $0x71,%eax
  401075:	eb 70                	jmp    4010e7 <phase_3+0x140>
  401077:	b8 62 00 00 00       	mov    $0x62,%eax
  40107c:	81 7c 24 08 4b 01 00 	cmpl   $0x14b,0x8(%rsp)
  401083:	00 
  401084:	74 61                	je     4010e7 <phase_3+0x140>
  401086:	e8 83 09 00 00       	callq  401a0e <explode_bomb>
  40108b:	b8 62 00 00 00       	mov    $0x62,%eax
  401090:	eb 55                	jmp    4010e7 <phase_3+0x140>
  401092:	b8 64 00 00 00       	mov    $0x64,%eax
  401097:	83 7c 24 08 38       	cmpl   $0x38,0x8(%rsp)
  40109c:	74 49                	je     4010e7 <phase_3+0x140>
  40109e:	e8 6b 09 00 00       	callq  401a0e <explode_bomb>
  4010a3:	b8 64 00 00 00       	mov    $0x64,%eax
  4010a8:	eb 3d                	jmp    4010e7 <phase_3+0x140>
  4010aa:	b8 76 00 00 00       	mov    $0x76,%eax
  4010af:	81 7c 24 08 8a 00 00 	cmpl   $0x8a,0x8(%rsp)
  4010b6:	00 
  4010b7:	74 2e                	je     4010e7 <phase_3+0x140>
  4010b9:	e8 50 09 00 00       	callq  401a0e <explode_bomb>
  4010be:	b8 76 00 00 00       	mov    $0x76,%eax
  4010c3:	eb 22                	jmp    4010e7 <phase_3+0x140>
  4010c5:	b8 63 00 00 00       	mov    $0x63,%eax
  4010ca:	83 7c 24 08 71       	cmpl   $0x71,0x8(%rsp)
  4010cf:	74 16                	je     4010e7 <phase_3+0x140>
  4010d1:	e8 38 09 00 00       	callq  401a0e <explode_bomb>
  4010d6:	b8 63 00 00 00       	mov    $0x63,%eax
  4010db:	eb 0a                	jmp    4010e7 <phase_3+0x140>
  4010dd:	e8 2c 09 00 00       	callq  401a0e <explode_bomb>
  4010e2:	b8 6d 00 00 00       	mov    $0x6d,%eax
  4010e7:	3a 44 24 07          	cmp    0x7(%rsp),%al
  4010eb:	74 05                	je     4010f2 <phase_3+0x14b>
  4010ed:	e8 1c 09 00 00       	callq  401a0e <explode_bomb>
  4010f2:	48 83 c4 18          	add    $0x18,%rsp
  4010f6:	c3                   	retq   

00000000004010f7 <secret_phase>:
  4010f7:	53                   	push   %rbx
  4010f8:	48 83 ec 10          	sub    $0x10,%rsp
  4010fc:	e8 8a 09 00 00       	callq  401a8b <read_line>
  401101:	48 89 c3             	mov    %rax,%rbx
  401104:	48 89 c7             	mov    %rax,%rdi
  401107:	e8 d4 00 00 00       	callq  4011e0 <string_length>
  40110c:	83 f8 06             	cmp    $0x6,%eax
  40110f:	74 05                	je     401116 <secret_phase+0x1f>
  401111:	e8 f8 08 00 00       	callq  401a0e <explode_bomb>
  401116:	b8 00 00 00 00       	mov    $0x0,%eax
  40111b:	48 8d 0d 0e 0d 00 00 	lea    0xd0e(%rip),%rcx        # 401e30 <array.3074>
  401122:	0f b6 14 03          	movzbl (%rbx,%rax,1),%edx
  401126:	83 e2 0f             	and    $0xf,%edx
  401129:	0f b6 14 11          	movzbl (%rcx,%rdx,1),%edx
  40112d:	88 54 04 09          	mov    %dl,0x9(%rsp,%rax,1)
  401131:	48 83 c0 01          	add    $0x1,%rax
  401135:	48 83 f8 06          	cmp    $0x6,%rax
  401139:	75 e7                	jne    401122 <secret_phase+0x2b>
  40113b:	c6 44 24 0f 00       	movb   $0x0,0xf(%rsp)
  401140:	48 8d 7c 24 09       	lea    0x9(%rsp),%rdi
  401145:	48 8d 35 bc 0c 00 00 	lea    0xcbc(%rip),%rsi        # 401e08 <_IO_stdin_used+0x138>
  40114c:	e8 ad 00 00 00       	callq  4011fe <strings_not_equal>
  401151:	85 c0                	test   %eax,%eax
  401153:	75 0b                	jne    401160 <secret_phase+0x69>
  401155:	e8 32 0a 00 00       	callq  401b8c <phase_defused>
  40115a:	48 83 c4 10          	add    $0x10,%rsp
  40115e:	5b                   	pop    %rbx
  40115f:	c3                   	retq   
  401160:	e8 a9 08 00 00       	callq  401a0e <explode_bomb>
  401165:	eb ee                	jmp    401155 <secret_phase+0x5e>

0000000000401167 <sig_handler>:
  401167:	48 83 ec 08          	sub    $0x8,%rsp
  40116b:	48 8d 3d ce 0c 00 00 	lea    0xcce(%rip),%rdi        # 401e40 <array.3074+0x10>
  401172:	e8 19 fa ff ff       	callq  400b90 <puts@plt>
  401177:	bf 03 00 00 00       	mov    $0x3,%edi
  40117c:	e8 9f fb ff ff       	callq  400d20 <sleep@plt>
  401181:	48 8d 3d f0 0d 00 00 	lea    0xdf0(%rip),%rdi        # 401f78 <array.3074+0x148>
  401188:	b8 00 00 00 00       	mov    $0x0,%eax
  40118d:	e8 3e fa ff ff       	callq  400bd0 <printf@plt>
  401192:	48 8b 3d c7 23 20 00 	mov    0x2023c7(%rip),%rdi        # 603560 <stdout@@GLIBC_2.2.5>
  401199:	e8 e2 fa ff ff       	callq  400c80 <fflush@plt>
  40119e:	bf 01 00 00 00       	mov    $0x1,%edi
  4011a3:	e8 78 fb ff ff       	callq  400d20 <sleep@plt>
  4011a8:	48 8d 3d d1 0d 00 00 	lea    0xdd1(%rip),%rdi        # 401f80 <array.3074+0x150>
  4011af:	e8 dc f9 ff ff       	callq  400b90 <puts@plt>
  4011b4:	bf 10 00 00 00       	mov    $0x10,%edi
  4011b9:	e8 32 fb ff ff       	callq  400cf0 <exit@plt>

00000000004011be <invalid_phase>:
  4011be:	48 83 ec 08          	sub    $0x8,%rsp
  4011c2:	48 89 fe             	mov    %rdi,%rsi
  4011c5:	48 8d 3d bc 0d 00 00 	lea    0xdbc(%rip),%rdi        # 401f88 <array.3074+0x158>
  4011cc:	b8 00 00 00 00       	mov    $0x0,%eax
  4011d1:	e8 fa f9 ff ff       	callq  400bd0 <printf@plt>
  4011d6:	bf 08 00 00 00       	mov    $0x8,%edi
  4011db:	e8 10 fb ff ff       	callq  400cf0 <exit@plt>

00000000004011e0 <string_length>:
  4011e0:	80 3f 00             	cmpb   $0x0,(%rdi)
  4011e3:	74 13                	je     4011f8 <string_length+0x18>
  4011e5:	b8 00 00 00 00       	mov    $0x0,%eax
  4011ea:	48 83 c7 01          	add    $0x1,%rdi
  4011ee:	83 c0 01             	add    $0x1,%eax
  4011f1:	80 3f 00             	cmpb   $0x0,(%rdi)
  4011f4:	75 f4                	jne    4011ea <string_length+0xa>
  4011f6:	f3 c3                	repz retq 
  4011f8:	b8 00 00 00 00       	mov    $0x0,%eax
  4011fd:	c3                   	retq   

00000000004011fe <strings_not_equal>:
  4011fe:	41 54                	push   %r12
  401200:	55                   	push   %rbp
  401201:	53                   	push   %rbx
  401202:	48 89 fb             	mov    %rdi,%rbx
  401205:	48 89 f5             	mov    %rsi,%rbp
  401208:	e8 d3 ff ff ff       	callq  4011e0 <string_length>
  40120d:	41 89 c4             	mov    %eax,%r12d
  401210:	48 89 ef             	mov    %rbp,%rdi
  401213:	e8 c8 ff ff ff       	callq  4011e0 <string_length>
  401218:	ba 01 00 00 00       	mov    $0x1,%edx
  40121d:	41 39 c4             	cmp    %eax,%r12d
  401220:	74 07                	je     401229 <strings_not_equal+0x2b>
  401222:	89 d0                	mov    %edx,%eax
  401224:	5b                   	pop    %rbx
  401225:	5d                   	pop    %rbp
  401226:	41 5c                	pop    %r12
  401228:	c3                   	retq   
  401229:	0f b6 03             	movzbl (%rbx),%eax
  40122c:	84 c0                	test   %al,%al
  40122e:	74 27                	je     401257 <strings_not_equal+0x59>
  401230:	3a 45 00             	cmp    0x0(%rbp),%al
  401233:	75 29                	jne    40125e <strings_not_equal+0x60>
  401235:	48 83 c3 01          	add    $0x1,%rbx
  401239:	48 83 c5 01          	add    $0x1,%rbp
  40123d:	0f b6 03             	movzbl (%rbx),%eax
  401240:	84 c0                	test   %al,%al
  401242:	74 0c                	je     401250 <strings_not_equal+0x52>
  401244:	3a 45 00             	cmp    0x0(%rbp),%al
  401247:	74 ec                	je     401235 <strings_not_equal+0x37>
  401249:	ba 01 00 00 00       	mov    $0x1,%edx
  40124e:	eb d2                	jmp    401222 <strings_not_equal+0x24>
  401250:	ba 00 00 00 00       	mov    $0x0,%edx
  401255:	eb cb                	jmp    401222 <strings_not_equal+0x24>
  401257:	ba 00 00 00 00       	mov    $0x0,%edx
  40125c:	eb c4                	jmp    401222 <strings_not_equal+0x24>
  40125e:	ba 01 00 00 00       	mov    $0x1,%edx
  401263:	eb bd                	jmp    401222 <strings_not_equal+0x24>

0000000000401265 <open_clientfd>:
  401265:	41 54                	push   %r12
  401267:	55                   	push   %rbp
  401268:	53                   	push   %rbx
  401269:	48 83 ec 10          	sub    $0x10,%rsp
  40126d:	49 89 fc             	mov    %rdi,%r12
  401270:	89 f3                	mov    %esi,%ebx
  401272:	ba 00 00 00 00       	mov    $0x0,%edx
  401277:	be 01 00 00 00       	mov    $0x1,%esi
  40127c:	bf 02 00 00 00       	mov    $0x2,%edi
  401281:	e8 ba fa ff ff       	callq  400d40 <socket@plt>
  401286:	85 c0                	test   %eax,%eax
  401288:	78 64                	js     4012ee <open_clientfd+0x89>
  40128a:	89 c5                	mov    %eax,%ebp
  40128c:	4c 89 e7             	mov    %r12,%rdi
  40128f:	e8 bc f9 ff ff       	callq  400c50 <gethostbyname@plt>
  401294:	48 85 c0             	test   %rax,%rax
  401297:	74 6b                	je     401304 <open_clientfd+0x9f>
  401299:	48 c7 04 24 00 00 00 	movq   $0x0,(%rsp)
  4012a0:	00 
  4012a1:	48 c7 44 24 08 00 00 	movq   $0x0,0x8(%rsp)
  4012a8:	00 00 
  4012aa:	66 c7 04 24 02 00    	movw   $0x2,(%rsp)
  4012b0:	48 63 50 14          	movslq 0x14(%rax),%rdx
  4012b4:	48 8d 74 24 04       	lea    0x4(%rsp),%rsi
  4012b9:	48 8b 40 18          	mov    0x18(%rax),%rax
  4012bd:	48 8b 38             	mov    (%rax),%rdi
  4012c0:	e8 db f9 ff ff       	callq  400ca0 <bcopy@plt>
  4012c5:	89 de                	mov    %ebx,%esi
  4012c7:	66 c1 ce 08          	ror    $0x8,%si
  4012cb:	66 89 74 24 02       	mov    %si,0x2(%rsp)
  4012d0:	ba 10 00 00 00       	mov    $0x10,%edx
  4012d5:	48 89 e6             	mov    %rsp,%rsi
  4012d8:	89 ef                	mov    %ebp,%edi
  4012da:	e8 21 fa ff ff       	callq  400d00 <connect@plt>
  4012df:	85 c0                	test   %eax,%eax
  4012e1:	78 37                	js     40131a <open_clientfd+0xb5>
  4012e3:	89 e8                	mov    %ebp,%eax
  4012e5:	48 83 c4 10          	add    $0x10,%rsp
  4012e9:	5b                   	pop    %rbx
  4012ea:	5d                   	pop    %rbp
  4012eb:	41 5c                	pop    %r12
  4012ed:	c3                   	retq   
  4012ee:	48 8d 3d a4 0c 00 00 	lea    0xca4(%rip),%rdi        # 401f99 <array.3074+0x169>
  4012f5:	e8 96 f8 ff ff       	callq  400b90 <puts@plt>
  4012fa:	bf 08 00 00 00       	mov    $0x8,%edi
  4012ff:	e8 ec f9 ff ff       	callq  400cf0 <exit@plt>
  401304:	48 8d 3d 9c 0c 00 00 	lea    0xc9c(%rip),%rdi        # 401fa7 <array.3074+0x177>
  40130b:	e8 80 f8 ff ff       	callq  400b90 <puts@plt>
  401310:	bf 08 00 00 00       	mov    $0x8,%edi
  401315:	e8 d6 f9 ff ff       	callq  400cf0 <exit@plt>
  40131a:	48 8d 3d 94 0c 00 00 	lea    0xc94(%rip),%rdi        # 401fb5 <array.3074+0x185>
  401321:	e8 6a f8 ff ff       	callq  400b90 <puts@plt>
  401326:	bf 08 00 00 00       	mov    $0x8,%edi
  40132b:	e8 c0 f9 ff ff       	callq  400cf0 <exit@plt>

0000000000401330 <initialize_bomb>:
  401330:	48 83 ec 08          	sub    $0x8,%rsp
  401334:	48 8d 35 2c fe ff ff 	lea    -0x1d4(%rip),%rsi        # 401167 <sig_handler>
  40133b:	bf 02 00 00 00       	mov    $0x2,%edi
  401340:	e8 fb f8 ff ff       	callq  400c40 <signal@plt>
  401345:	be 50 00 00 00       	mov    $0x50,%esi
  40134a:	48 8d 3d 72 0c 00 00 	lea    0xc72(%rip),%rdi        # 401fc3 <array.3074+0x193>
  401351:	e8 0f ff ff ff       	callq  401265 <open_clientfd>
  401356:	89 c7                	mov    %eax,%edi
  401358:	e8 a3 f8 ff ff       	callq  400c00 <close@plt>
  40135d:	48 83 c4 08          	add    $0x8,%rsp
  401361:	c3                   	retq   

0000000000401362 <blank_line>:
  401362:	55                   	push   %rbp
  401363:	53                   	push   %rbx
  401364:	48 83 ec 08          	sub    $0x8,%rsp
  401368:	48 89 fd             	mov    %rdi,%rbp
  40136b:	0f b6 5d 00          	movzbl 0x0(%rbp),%ebx
  40136f:	84 db                	test   %bl,%bl
  401371:	74 1e                	je     401391 <blank_line+0x2f>
  401373:	e8 b8 f9 ff ff       	callq  400d30 <__ctype_b_loc@plt>
  401378:	48 83 c5 01          	add    $0x1,%rbp
  40137c:	48 0f be db          	movsbq %bl,%rbx
  401380:	48 8b 00             	mov    (%rax),%rax
  401383:	f6 44 58 01 20       	testb  $0x20,0x1(%rax,%rbx,2)
  401388:	75 e1                	jne    40136b <blank_line+0x9>
  40138a:	b8 00 00 00 00       	mov    $0x0,%eax
  40138f:	eb 05                	jmp    401396 <blank_line+0x34>
  401391:	b8 01 00 00 00       	mov    $0x1,%eax
  401396:	48 83 c4 08          	add    $0x8,%rsp
  40139a:	5b                   	pop    %rbx
  40139b:	5d                   	pop    %rbp
  40139c:	c3                   	retq   

000000000040139d <skip>:
  40139d:	55                   	push   %rbp
  40139e:	53                   	push   %rbx
  40139f:	48 83 ec 08          	sub    $0x8,%rsp
  4013a3:	48 8d 2d f6 21 20 00 	lea    0x2021f6(%rip),%rbp        # 6035a0 <input_strings>
  4013aa:	48 63 05 cb 21 20 00 	movslq 0x2021cb(%rip),%rax        # 60357c <num_input_strings>
  4013b1:	48 8d 3c 80          	lea    (%rax,%rax,4),%rdi
  4013b5:	48 c1 e7 04          	shl    $0x4,%rdi
  4013b9:	48 01 ef             	add    %rbp,%rdi
  4013bc:	48 8b 15 bd 21 20 00 	mov    0x2021bd(%rip),%rdx        # 603580 <infile>
  4013c3:	be 50 00 00 00       	mov    $0x50,%esi
  4013c8:	e8 53 f8 ff ff       	callq  400c20 <fgets@plt>
  4013cd:	48 89 c3             	mov    %rax,%rbx
  4013d0:	48 85 c0             	test   %rax,%rax
  4013d3:	74 0c                	je     4013e1 <skip+0x44>
  4013d5:	48 89 c7             	mov    %rax,%rdi
  4013d8:	e8 85 ff ff ff       	callq  401362 <blank_line>
  4013dd:	85 c0                	test   %eax,%eax
  4013df:	75 c9                	jne    4013aa <skip+0xd>
  4013e1:	48 89 d8             	mov    %rbx,%rax
  4013e4:	48 83 c4 08          	add    $0x8,%rsp
  4013e8:	5b                   	pop    %rbx
  4013e9:	5d                   	pop    %rbp
  4013ea:	c3                   	retq   

00000000004013eb <writen>:
  4013eb:	41 56                	push   %r14
  4013ed:	41 55                	push   %r13
  4013ef:	41 54                	push   %r12
  4013f1:	55                   	push   %rbp
  4013f2:	53                   	push   %rbx
  4013f3:	49 89 d5             	mov    %rdx,%r13
  4013f6:	48 85 d2             	test   %rdx,%rdx
  4013f9:	74 3b                	je     401436 <writen+0x4b>
  4013fb:	41 89 fc             	mov    %edi,%r12d
  4013fe:	48 89 f5             	mov    %rsi,%rbp
  401401:	48 89 d3             	mov    %rdx,%rbx
  401404:	41 be 00 00 00 00    	mov    $0x0,%r14d
  40140a:	eb 08                	jmp    401414 <writen+0x29>
  40140c:	48 01 c5             	add    %rax,%rbp
  40140f:	48 29 c3             	sub    %rax,%rbx
  401412:	74 22                	je     401436 <writen+0x4b>
  401414:	48 89 da             	mov    %rbx,%rdx
  401417:	48 89 ee             	mov    %rbp,%rsi
  40141a:	44 89 e7             	mov    %r12d,%edi
  40141d:	e8 7e f7 ff ff       	callq  400ba0 <write@plt>
  401422:	48 85 c0             	test   %rax,%rax
  401425:	7f e5                	jg     40140c <writen+0x21>
  401427:	e8 44 f7 ff ff       	callq  400b70 <__errno_location@plt>
  40142c:	83 38 04             	cmpl   $0x4,(%rax)
  40142f:	75 11                	jne    401442 <writen+0x57>
  401431:	4c 89 f0             	mov    %r14,%rax
  401434:	eb d6                	jmp    40140c <writen+0x21>
  401436:	4c 89 e8             	mov    %r13,%rax
  401439:	5b                   	pop    %rbx
  40143a:	5d                   	pop    %rbp
  40143b:	41 5c                	pop    %r12
  40143d:	41 5d                	pop    %r13
  40143f:	41 5e                	pop    %r14
  401441:	c3                   	retq   
  401442:	48 c7 c0 ff ff ff ff 	mov    $0xffffffffffffffff,%rax
  401449:	eb ee                	jmp    401439 <writen+0x4e>

000000000040144b <send_msg>:
  40144b:	41 57                	push   %r15
  40144d:	41 56                	push   %r14
  40144f:	41 55                	push   %r13
  401451:	41 54                	push   %r12
  401453:	55                   	push   %rbp
  401454:	53                   	push   %rbx
  401455:	48 81 ec 68 24 00 00 	sub    $0x2468,%rsp
  40145c:	41 89 fc             	mov    %edi,%r12d
  40145f:	ba 00 00 00 00       	mov    $0x0,%edx
  401464:	be 01 00 00 00       	mov    $0x1,%esi
  401469:	bf 02 00 00 00       	mov    $0x2,%edi
  40146e:	e8 cd f8 ff ff       	callq  400d40 <socket@plt>
  401473:	41 89 c7             	mov    %eax,%r15d
  401476:	85 c0                	test   %eax,%eax
  401478:	0f 88 2a 02 00 00    	js     4016a8 <send_msg+0x25d>
  40147e:	48 c7 84 24 50 24 00 	movq   $0x0,0x2450(%rsp)
  401485:	00 00 00 00 00 
  40148a:	48 c7 84 24 58 24 00 	movq   $0x0,0x2458(%rsp)
  401491:	00 00 00 00 00 
  401496:	66 c7 84 24 50 24 00 	movw   $0x2,0x2450(%rsp)
  40149d:	00 02 00 
  4014a0:	66 c7 84 24 52 24 00 	movw   $0x62cc,0x2452(%rsp)
  4014a7:	00 cc 62 
  4014aa:	48 8d 94 24 54 24 00 	lea    0x2454(%rsp),%rdx
  4014b1:	00 
  4014b2:	48 8d 35 0a 0b 00 00 	lea    0xb0a(%rip),%rsi        # 401fc3 <array.3074+0x193>
  4014b9:	bf 02 00 00 00       	mov    $0x2,%edi
  4014be:	b8 00 00 00 00       	mov    $0x0,%eax
  4014c3:	e8 a8 f7 ff ff       	callq  400c70 <inet_pton@plt>
  4014c8:	85 c0                	test   %eax,%eax
  4014ca:	0f 88 09 02 00 00    	js     4016d9 <send_msg+0x28e>
  4014d0:	48 8d b4 24 50 24 00 	lea    0x2450(%rsp),%rsi
  4014d7:	00 
  4014d8:	ba 10 00 00 00       	mov    $0x10,%edx
  4014dd:	44 89 ff             	mov    %r15d,%edi
  4014e0:	e8 1b f8 ff ff       	callq  400d00 <connect@plt>
  4014e5:	85 c0                	test   %eax,%eax
  4014e7:	0f 88 22 02 00 00    	js     40170f <send_msg+0x2c4>
  4014ed:	48 8d 6c 24 50       	lea    0x50(%rsp),%rbp
  4014f2:	48 b8 53 75 62 6a 65 	movabs $0x3a7463656a627553,%rax
  4014f9:	63 74 3a 
  4014fc:	48 89 44 24 50       	mov    %rax,0x50(%rsp)
  401501:	48 b8 20 42 6f 6d 62 	movabs $0x6f6e20626d6f4220,%rax
  401508:	20 6e 6f 
  40150b:	48 89 44 24 58       	mov    %rax,0x58(%rsp)
  401510:	48 b8 74 69 66 69 63 	movabs $0x6974616369666974,%rax
  401517:	61 74 69 
  40151a:	48 89 44 24 60       	mov    %rax,0x60(%rsp)
  40151f:	c7 44 24 68 6f 6e 0a 	movl   $0xa6e6f,0x68(%rsp)
  401526:	00 
  401527:	48 8d 9c 24 50 04 00 	lea    0x450(%rsp),%rbx
  40152e:	00 
  40152f:	48 89 ee             	mov    %rbp,%rsi
  401532:	48 89 df             	mov    %rbx,%rdi
  401535:	e8 96 f7 ff ff       	callq  400cd0 <strcat@plt>
  40153a:	66 c7 44 24 50 0a 00 	movw   $0xa,0x50(%rsp)
  401541:	48 89 ee             	mov    %rbp,%rsi
  401544:	48 89 df             	mov    %rbx,%rdi
  401547:	e8 84 f7 ff ff       	callq  400cd0 <strcat@plt>
  40154c:	bf 00 00 00 00       	mov    $0x0,%edi
  401551:	e8 5a f7 ff ff       	callq  400cb0 <cuserid@plt>
  401556:	48 85 c0             	test   %rax,%rax
  401559:	0f 84 e6 01 00 00    	je     401745 <send_msg+0x2fa>
  40155f:	48 89 e7             	mov    %rsp,%rdi
  401562:	48 89 c6             	mov    %rax,%rsi
  401565:	e8 16 f6 ff ff       	callq  400b80 <strcpy@plt>
  40156a:	45 85 e4             	test   %r12d,%r12d
  40156d:	48 8d 05 65 0a 00 00 	lea    0xa65(%rip),%rax        # 401fd9 <array.3074+0x1a9>
  401574:	4c 8d 0d 56 0a 00 00 	lea    0xa56(%rip),%r9        # 401fd1 <array.3074+0x1a1>
  40157b:	4c 0f 44 c8          	cmove  %rax,%r9
  40157f:	48 8d 5c 24 50       	lea    0x50(%rsp),%rbx
  401584:	48 83 ec 08          	sub    $0x8,%rsp
  401588:	8b 05 ee 1f 20 00    	mov    0x201fee(%rip),%eax        # 60357c <num_input_strings>
  40158e:	50                   	push   %rax
  40158f:	4c 8d 44 24 10       	lea    0x10(%rsp),%r8
  401594:	8b 0d a6 1f 20 00    	mov    0x201fa6(%rip),%ecx        # 603540 <bomb_id>
  40159a:	48 8d 15 9f 1b 20 00 	lea    0x201b9f(%rip),%rdx        # 603140 <lab_id>
  4015a1:	48 8d 35 55 0a 00 00 	lea    0xa55(%rip),%rsi        # 401ffd <array.3074+0x1cd>
  4015a8:	48 89 df             	mov    %rbx,%rdi
  4015ab:	b8 00 00 00 00       	mov    $0x0,%eax
  4015b0:	e8 2b f7 ff ff       	callq  400ce0 <sprintf@plt>
  4015b5:	48 8d bc 24 60 04 00 	lea    0x460(%rsp),%rdi
  4015bc:	00 
  4015bd:	48 89 de             	mov    %rbx,%rsi
  4015c0:	e8 0b f7 ff ff       	callq  400cd0 <strcat@plt>
  4015c5:	48 83 c4 10          	add    $0x10,%rsp
  4015c9:	83 3d ac 1f 20 00 00 	cmpl   $0x0,0x201fac(%rip)        # 60357c <num_input_strings>
  4015d0:	7e 70                	jle    401642 <send_msg+0x1f7>
  4015d2:	bb 00 00 00 00       	mov    $0x0,%ebx
  4015d7:	4c 8d 35 c2 1f 20 00 	lea    0x201fc2(%rip),%r14        # 6035a0 <input_strings>
  4015de:	49 89 e5             	mov    %rsp,%r13
  4015e1:	48 8d 6c 24 50       	lea    0x50(%rsp),%rbp
  4015e6:	4c 8d a4 24 50 04 00 	lea    0x450(%rsp),%r12
  4015ed:	00 
  4015ee:	48 63 c3             	movslq %ebx,%rax
  4015f1:	48 8d 04 80          	lea    (%rax,%rax,4),%rax
  4015f5:	48 c1 e0 04          	shl    $0x4,%rax
  4015f9:	4c 01 f0             	add    %r14,%rax
  4015fc:	83 c3 01             	add    $0x1,%ebx
  4015ff:	48 83 ec 08          	sub    $0x8,%rsp
  401603:	50                   	push   %rax
  401604:	41 89 d9             	mov    %ebx,%r9d
  401607:	4d 89 e8             	mov    %r13,%r8
  40160a:	8b 0d 30 1f 20 00    	mov    0x201f30(%rip),%ecx        # 603540 <bomb_id>
  401610:	48 8d 15 29 1b 20 00 	lea    0x201b29(%rip),%rdx        # 603140 <lab_id>
  401617:	48 8d 35 fb 09 00 00 	lea    0x9fb(%rip),%rsi        # 402019 <array.3074+0x1e9>
  40161e:	48 89 ef             	mov    %rbp,%rdi
  401621:	b8 00 00 00 00       	mov    $0x0,%eax
  401626:	e8 b5 f6 ff ff       	callq  400ce0 <sprintf@plt>
  40162b:	48 89 ee             	mov    %rbp,%rsi
  40162e:	4c 89 e7             	mov    %r12,%rdi
  401631:	e8 9a f6 ff ff       	callq  400cd0 <strcat@plt>
  401636:	48 83 c4 10          	add    $0x10,%rsp
  40163a:	39 1d 3c 1f 20 00    	cmp    %ebx,0x201f3c(%rip)        # 60357c <num_input_strings>
  401640:	7f ac                	jg     4015ee <send_msg+0x1a3>
  401642:	48 8d ac 24 50 04 00 	lea    0x450(%rsp),%rbp
  401649:	00 
  40164a:	49 c7 c4 ff ff ff ff 	mov    $0xffffffffffffffff,%r12
  401651:	bb 00 00 00 00       	mov    $0x0,%ebx
  401656:	4c 89 e1             	mov    %r12,%rcx
  401659:	48 89 ef             	mov    %rbp,%rdi
  40165c:	89 d8                	mov    %ebx,%eax
  40165e:	f2 ae                	repnz scas %es:(%rdi),%al
  401660:	48 f7 d1             	not    %rcx
  401663:	4a 8d 14 21          	lea    (%rcx,%r12,1),%rdx
  401667:	48 89 ee             	mov    %rbp,%rsi
  40166a:	44 89 ff             	mov    %r15d,%edi
  40166d:	e8 79 fd ff ff       	callq  4013eb <writen>
  401672:	48 89 c2             	mov    %rax,%rdx
  401675:	4c 89 e1             	mov    %r12,%rcx
  401678:	48 89 ef             	mov    %rbp,%rdi
  40167b:	89 d8                	mov    %ebx,%eax
  40167d:	f2 ae                	repnz scas %es:(%rdi),%al
  40167f:	48 f7 d1             	not    %rcx
  401682:	4c 01 e1             	add    %r12,%rcx
  401685:	48 39 ca             	cmp    %rcx,%rdx
  401688:	0f 82 cf 00 00 00    	jb     40175d <send_msg+0x312>
  40168e:	44 89 ff             	mov    %r15d,%edi
  401691:	e8 6a f5 ff ff       	callq  400c00 <close@plt>
  401696:	48 81 c4 68 24 00 00 	add    $0x2468,%rsp
  40169d:	5b                   	pop    %rbx
  40169e:	5d                   	pop    %rbp
  40169f:	41 5c                	pop    %r12
  4016a1:	41 5d                	pop    %r13
  4016a3:	41 5e                	pop    %r14
  4016a5:	41 5f                	pop    %r15
  4016a7:	c3                   	retq   
  4016a8:	48 8d 15 33 09 00 00 	lea    0x933(%rip),%rdx        # 401fe2 <array.3074+0x1b2>
  4016af:	48 8d 35 37 06 00 00 	lea    0x637(%rip),%rsi        # 401ced <_IO_stdin_used+0x1d>
  4016b6:	48 8b 3d a3 1e 20 00 	mov    0x201ea3(%rip),%rdi        # 603560 <stdout@@GLIBC_2.2.5>
  4016bd:	b8 00 00 00 00       	mov    $0x0,%eax
  4016c2:	e8 99 f5 ff ff       	callq  400c60 <fprintf@plt>
  4016c7:	44 89 ff             	mov    %r15d,%edi
  4016ca:	e8 31 f5 ff ff       	callq  400c00 <close@plt>
  4016cf:	bf 01 00 00 00       	mov    $0x1,%edi
  4016d4:	e8 17 f6 ff ff       	callq  400cf0 <exit@plt>
  4016d9:	48 8d 15 76 09 00 00 	lea    0x976(%rip),%rdx        # 402056 <array.3074+0x226>
  4016e0:	48 8d 35 06 06 00 00 	lea    0x606(%rip),%rsi        # 401ced <_IO_stdin_used+0x1d>
  4016e7:	48 8b 3d 72 1e 20 00 	mov    0x201e72(%rip),%rdi        # 603560 <stdout@@GLIBC_2.2.5>
  4016ee:	b8 00 00 00 00       	mov    $0x0,%eax
  4016f3:	e8 68 f5 ff ff       	callq  400c60 <fprintf@plt>
  4016f8:	45 85 ff             	test   %r15d,%r15d
  4016fb:	74 08                	je     401705 <send_msg+0x2ba>
  4016fd:	44 89 ff             	mov    %r15d,%edi
  401700:	e8 fb f4 ff ff       	callq  400c00 <close@plt>
  401705:	bf 01 00 00 00       	mov    $0x1,%edi
  40170a:	e8 e1 f5 ff ff       	callq  400cf0 <exit@plt>
  40170f:	48 8d 15 d9 08 00 00 	lea    0x8d9(%rip),%rdx        # 401fef <array.3074+0x1bf>
  401716:	48 8d 35 d0 05 00 00 	lea    0x5d0(%rip),%rsi        # 401ced <_IO_stdin_used+0x1d>
  40171d:	48 8b 3d 3c 1e 20 00 	mov    0x201e3c(%rip),%rdi        # 603560 <stdout@@GLIBC_2.2.5>
  401724:	b8 00 00 00 00       	mov    $0x0,%eax
  401729:	e8 32 f5 ff ff       	callq  400c60 <fprintf@plt>
  40172e:	45 85 ff             	test   %r15d,%r15d
  401731:	74 08                	je     40173b <send_msg+0x2f0>
  401733:	44 89 ff             	mov    %r15d,%edi
  401736:	e8 c5 f4 ff ff       	callq  400c00 <close@plt>
  40173b:	bf 01 00 00 00       	mov    $0x1,%edi
  401740:	e8 ab f5 ff ff       	callq  400cf0 <exit@plt>
  401745:	c7 04 24 6e 6f 62 6f 	movl   $0x6f626f6e,(%rsp)
  40174c:	66 c7 44 24 04 64 79 	movw   $0x7964,0x4(%rsp)
  401753:	c6 44 24 06 00       	movb   $0x0,0x6(%rsp)
  401758:	e9 0d fe ff ff       	jmpq   40156a <send_msg+0x11f>
  40175d:	48 8d 15 d1 08 00 00 	lea    0x8d1(%rip),%rdx        # 402035 <array.3074+0x205>
  401764:	48 8d 35 82 05 00 00 	lea    0x582(%rip),%rsi        # 401ced <_IO_stdin_used+0x1d>
  40176b:	48 8b 3d ee 1d 20 00 	mov    0x201dee(%rip),%rdi        # 603560 <stdout@@GLIBC_2.2.5>
  401772:	e8 e9 f4 ff ff       	callq  400c60 <fprintf@plt>
  401777:	45 85 ff             	test   %r15d,%r15d
  40177a:	74 08                	je     401784 <send_msg+0x339>
  40177c:	44 89 ff             	mov    %r15d,%edi
  40177f:	e8 7c f4 ff ff       	callq  400c00 <close@plt>
  401784:	bf 01 00 00 00       	mov    $0x1,%edi
  401789:	e8 62 f5 ff ff       	callq  400cf0 <exit@plt>

000000000040178e <send_msg_2>:
  40178e:	41 57                	push   %r15
  401790:	41 56                	push   %r14
  401792:	41 55                	push   %r13
  401794:	41 54                	push   %r12
  401796:	55                   	push   %rbp
  401797:	53                   	push   %rbx
  401798:	48 83 ec 68          	sub    $0x68,%rsp
  40179c:	89 fb                	mov    %edi,%ebx
  40179e:	bf 00 00 00 00       	mov    $0x0,%edi
  4017a3:	e8 48 f4 ff ff       	callq  400bf0 <dup@plt>
  4017a8:	89 44 24 0c          	mov    %eax,0xc(%rsp)
  4017ac:	83 f8 ff             	cmp    $0xffffffff,%eax
  4017af:	0f 84 a6 01 00 00    	je     40195b <send_msg_2+0x1cd>
  4017b5:	bf 00 00 00 00       	mov    $0x0,%edi
  4017ba:	e8 41 f4 ff ff       	callq  400c00 <close@plt>
  4017bf:	83 f8 ff             	cmp    $0xffffffff,%eax
  4017c2:	0f 84 a9 01 00 00    	je     401971 <send_msg_2+0x1e3>
  4017c8:	e8 63 f4 ff ff       	callq  400c30 <tmpfile@plt>
  4017cd:	48 89 c5             	mov    %rax,%rbp
  4017d0:	48 85 c0             	test   %rax,%rax
  4017d3:	0f 84 ae 01 00 00    	je     401987 <send_msg_2+0x1f9>
  4017d9:	48 89 c1             	mov    %rax,%rcx
  4017dc:	ba 1b 00 00 00       	mov    $0x1b,%edx
  4017e1:	be 01 00 00 00       	mov    $0x1,%esi
  4017e6:	48 8d 3d 97 08 00 00 	lea    0x897(%rip),%rdi        # 402084 <array.3074+0x254>
  4017ed:	e8 1e f5 ff ff       	callq  400d10 <fwrite@plt>
  4017f2:	48 89 ee             	mov    %rbp,%rsi
  4017f5:	bf 0a 00 00 00       	mov    $0xa,%edi
  4017fa:	e8 11 f4 ff ff       	callq  400c10 <fputc@plt>
  4017ff:	bf 00 00 00 00       	mov    $0x0,%edi
  401804:	e8 a7 f4 ff ff       	callq  400cb0 <cuserid@plt>
  401809:	48 85 c0             	test   %rax,%rax
  40180c:	0f 84 8b 01 00 00    	je     40199d <send_msg_2+0x20f>
  401812:	48 8d 7c 24 10       	lea    0x10(%rsp),%rdi
  401817:	48 89 c6             	mov    %rax,%rsi
  40181a:	e8 61 f3 ff ff       	callq  400b80 <strcpy@plt>
  40181f:	85 db                	test   %ebx,%ebx
  401821:	48 8d 05 b1 07 00 00 	lea    0x7b1(%rip),%rax        # 401fd9 <array.3074+0x1a9>
  401828:	4c 8d 0d a2 07 00 00 	lea    0x7a2(%rip),%r9        # 401fd1 <array.3074+0x1a1>
  40182f:	4c 0f 44 c8          	cmove  %rax,%r9
  401833:	48 83 ec 08          	sub    $0x8,%rsp
  401837:	8b 05 3f 1d 20 00    	mov    0x201d3f(%rip),%eax        # 60357c <num_input_strings>
  40183d:	50                   	push   %rax
  40183e:	4c 8d 44 24 20       	lea    0x20(%rsp),%r8
  401843:	8b 0d f7 1c 20 00    	mov    0x201cf7(%rip),%ecx        # 603540 <bomb_id>
  401849:	48 8d 15 f0 18 20 00 	lea    0x2018f0(%rip),%rdx        # 603140 <lab_id>
  401850:	48 8d 35 a6 07 00 00 	lea    0x7a6(%rip),%rsi        # 401ffd <array.3074+0x1cd>
  401857:	48 89 ef             	mov    %rbp,%rdi
  40185a:	b8 00 00 00 00       	mov    $0x0,%eax
  40185f:	e8 fc f3 ff ff       	callq  400c60 <fprintf@plt>
  401864:	48 83 c4 10          	add    $0x10,%rsp
  401868:	83 3d 0d 1d 20 00 00 	cmpl   $0x0,0x201d0d(%rip)        # 60357c <num_input_strings>
  40186f:	7e 60                	jle    4018d1 <send_msg_2+0x143>
  401871:	bb 00 00 00 00       	mov    $0x0,%ebx
  401876:	4c 8d 3d 23 1d 20 00 	lea    0x201d23(%rip),%r15        # 6035a0 <input_strings>
  40187d:	4c 8d 74 24 10       	lea    0x10(%rsp),%r14
  401882:	4c 8d 2d b7 18 20 00 	lea    0x2018b7(%rip),%r13        # 603140 <lab_id>
  401889:	4c 8d 25 89 07 00 00 	lea    0x789(%rip),%r12        # 402019 <array.3074+0x1e9>
  401890:	48 63 c3             	movslq %ebx,%rax
  401893:	48 8d 04 80          	lea    (%rax,%rax,4),%rax
  401897:	48 c1 e0 04          	shl    $0x4,%rax
  40189b:	4c 01 f8             	add    %r15,%rax
  40189e:	83 c3 01             	add    $0x1,%ebx
  4018a1:	48 83 ec 08          	sub    $0x8,%rsp
  4018a5:	50                   	push   %rax
  4018a6:	41 89 d9             	mov    %ebx,%r9d
  4018a9:	4d 89 f0             	mov    %r14,%r8
  4018ac:	8b 0d 8e 1c 20 00    	mov    0x201c8e(%rip),%ecx        # 603540 <bomb_id>
  4018b2:	4c 89 ea             	mov    %r13,%rdx
  4018b5:	4c 89 e6             	mov    %r12,%rsi
  4018b8:	48 89 ef             	mov    %rbp,%rdi
  4018bb:	b8 00 00 00 00       	mov    $0x0,%eax
  4018c0:	e8 9b f3 ff ff       	callq  400c60 <fprintf@plt>
  4018c5:	48 83 c4 10          	add    $0x10,%rsp
  4018c9:	39 1d ad 1c 20 00    	cmp    %ebx,0x201cad(%rip)        # 60357c <num_input_strings>
  4018cf:	7f bf                	jg     401890 <send_msg_2+0x102>
  4018d1:	48 89 ef             	mov    %rbp,%rdi
  4018d4:	e8 07 f3 ff ff       	callq  400be0 <rewind@plt>
  4018d9:	4c 8d 05 c0 07 00 00 	lea    0x7c0(%rip),%r8        # 4020a0 <array.3074+0x270>
  4018e0:	48 8d 0d c3 07 00 00 	lea    0x7c3(%rip),%rcx        # 4020aa <array.3074+0x27a>
  4018e7:	48 8d 15 c7 07 00 00 	lea    0x7c7(%rip),%rdx        # 4020b5 <array.3074+0x285>
  4018ee:	48 8d 35 d7 07 00 00 	lea    0x7d7(%rip),%rsi        # 4020cc <array.3074+0x29c>
  4018f5:	48 8d 3d e4 22 20 00 	lea    0x2022e4(%rip),%rdi        # 603be0 <scratch>
  4018fc:	b8 00 00 00 00       	mov    $0x0,%eax
  401901:	e8 da f3 ff ff       	callq  400ce0 <sprintf@plt>
  401906:	48 8d 3d d3 22 20 00 	lea    0x2022d3(%rip),%rdi        # 603be0 <scratch>
  40190d:	e8 ae f2 ff ff       	callq  400bc0 <system@plt>
  401912:	85 c0                	test   %eax,%eax
  401914:	0f 85 9c 00 00 00    	jne    4019b6 <send_msg_2+0x228>
  40191a:	48 89 ef             	mov    %rbp,%rdi
  40191d:	e8 8e f2 ff ff       	callq  400bb0 <fclose@plt>
  401922:	85 c0                	test   %eax,%eax
  401924:	0f 85 a2 00 00 00    	jne    4019cc <send_msg_2+0x23e>
  40192a:	8b 7c 24 0c          	mov    0xc(%rsp),%edi
  40192e:	e8 bd f2 ff ff       	callq  400bf0 <dup@plt>
  401933:	85 c0                	test   %eax,%eax
  401935:	0f 85 a7 00 00 00    	jne    4019e2 <send_msg_2+0x254>
  40193b:	8b 7c 24 0c          	mov    0xc(%rsp),%edi
  40193f:	e8 bc f2 ff ff       	callq  400c00 <close@plt>
  401944:	85 c0                	test   %eax,%eax
  401946:	0f 85 ac 00 00 00    	jne    4019f8 <send_msg_2+0x26a>
  40194c:	48 83 c4 68          	add    $0x68,%rsp
  401950:	5b                   	pop    %rbx
  401951:	5d                   	pop    %rbp
  401952:	41 5c                	pop    %r12
  401954:	41 5d                	pop    %r13
  401956:	41 5e                	pop    %r14
  401958:	41 5f                	pop    %r15
  40195a:	c3                   	retq   
  40195b:	48 8d 3d e6 06 00 00 	lea    0x6e6(%rip),%rdi        # 402048 <array.3074+0x218>
  401962:	e8 29 f2 ff ff       	callq  400b90 <puts@plt>
  401967:	bf 08 00 00 00       	mov    $0x8,%edi
  40196c:	e8 7f f3 ff ff       	callq  400cf0 <exit@plt>
  401971:	48 8d 3d e4 06 00 00 	lea    0x6e4(%rip),%rdi        # 40205c <array.3074+0x22c>
  401978:	e8 13 f2 ff ff       	callq  400b90 <puts@plt>
  40197d:	bf 08 00 00 00       	mov    $0x8,%edi
  401982:	e8 69 f3 ff ff       	callq  400cf0 <exit@plt>
  401987:	48 8d 3d e1 06 00 00 	lea    0x6e1(%rip),%rdi        # 40206f <array.3074+0x23f>
  40198e:	e8 fd f1 ff ff       	callq  400b90 <puts@plt>
  401993:	bf 08 00 00 00       	mov    $0x8,%edi
  401998:	e8 53 f3 ff ff       	callq  400cf0 <exit@plt>
  40199d:	c7 44 24 10 6e 6f 62 	movl   $0x6f626f6e,0x10(%rsp)
  4019a4:	6f 
  4019a5:	66 c7 44 24 14 64 79 	movw   $0x7964,0x14(%rsp)
  4019ac:	c6 44 24 16 00       	movb   $0x0,0x16(%rsp)
  4019b1:	e9 69 fe ff ff       	jmpq   40181f <send_msg_2+0x91>
  4019b6:	48 8d 3d 18 07 00 00 	lea    0x718(%rip),%rdi        # 4020d5 <array.3074+0x2a5>
  4019bd:	e8 ce f1 ff ff       	callq  400b90 <puts@plt>
  4019c2:	bf 08 00 00 00       	mov    $0x8,%edi
  4019c7:	e8 24 f3 ff ff       	callq  400cf0 <exit@plt>
  4019cc:	48 8d 3d 1c 07 00 00 	lea    0x71c(%rip),%rdi        # 4020ef <array.3074+0x2bf>
  4019d3:	e8 b8 f1 ff ff       	callq  400b90 <puts@plt>
  4019d8:	bf 08 00 00 00       	mov    $0x8,%edi
  4019dd:	e8 0e f3 ff ff       	callq  400cf0 <exit@plt>
  4019e2:	48 8d 3d 1f 07 00 00 	lea    0x71f(%rip),%rdi        # 402108 <array.3074+0x2d8>
  4019e9:	e8 a2 f1 ff ff       	callq  400b90 <puts@plt>
  4019ee:	bf 08 00 00 00       	mov    $0x8,%edi
  4019f3:	e8 f8 f2 ff ff       	callq  400cf0 <exit@plt>
  4019f8:	48 8d 3d 24 07 00 00 	lea    0x724(%rip),%rdi        # 402123 <array.3074+0x2f3>
  4019ff:	e8 8c f1 ff ff       	callq  400b90 <puts@plt>
  401a04:	bf 08 00 00 00       	mov    $0x8,%edi
  401a09:	e8 e2 f2 ff ff       	callq  400cf0 <exit@plt>

0000000000401a0e <explode_bomb>:
  401a0e:	48 83 ec 08          	sub    $0x8,%rsp
  401a12:	48 8d 3d 21 07 00 00 	lea    0x721(%rip),%rdi        # 40213a <array.3074+0x30a>
  401a19:	e8 72 f1 ff ff       	callq  400b90 <puts@plt>
  401a1e:	48 8d 3d 1e 07 00 00 	lea    0x71e(%rip),%rdi        # 402143 <array.3074+0x313>
  401a25:	e8 66 f1 ff ff       	callq  400b90 <puts@plt>
  401a2a:	bf 00 00 00 00       	mov    $0x0,%edi
  401a2f:	e8 17 fa ff ff       	callq  40144b <send_msg>
  401a34:	48 8d 3d 3d 04 00 00 	lea    0x43d(%rip),%rdi        # 401e78 <array.3074+0x48>
  401a3b:	e8 50 f1 ff ff       	callq  400b90 <puts@plt>
  401a40:	bf 08 00 00 00       	mov    $0x8,%edi
  401a45:	e8 a6 f2 ff ff       	callq  400cf0 <exit@plt>

0000000000401a4a <read_six_numbers>:
  401a4a:	48 83 ec 08          	sub    $0x8,%rsp
  401a4e:	48 89 f2             	mov    %rsi,%rdx
  401a51:	48 8d 4e 04          	lea    0x4(%rsi),%rcx
  401a55:	48 8d 46 14          	lea    0x14(%rsi),%rax
  401a59:	50                   	push   %rax
  401a5a:	48 8d 46 10          	lea    0x10(%rsi),%rax
  401a5e:	50                   	push   %rax
  401a5f:	4c 8d 4e 0c          	lea    0xc(%rsi),%r9
  401a63:	4c 8d 46 08          	lea    0x8(%rsi),%r8
  401a67:	48 8d 35 ec 06 00 00 	lea    0x6ec(%rip),%rsi        # 40215a <array.3074+0x32a>
  401a6e:	b8 00 00 00 00       	mov    $0x0,%eax
  401a73:	e8 18 f2 ff ff       	callq  400c90 <__isoc99_sscanf@plt>
  401a78:	48 83 c4 10          	add    $0x10,%rsp
  401a7c:	83 f8 05             	cmp    $0x5,%eax
  401a7f:	7e 05                	jle    401a86 <read_six_numbers+0x3c>
  401a81:	48 83 c4 08          	add    $0x8,%rsp
  401a85:	c3                   	retq   
  401a86:	e8 83 ff ff ff       	callq  401a0e <explode_bomb>

0000000000401a8b <read_line>:
  401a8b:	48 83 ec 08          	sub    $0x8,%rsp
  401a8f:	b8 00 00 00 00       	mov    $0x0,%eax
  401a94:	e8 04 f9 ff ff       	callq  40139d <skip>
  401a99:	48 85 c0             	test   %rax,%rax
  401a9c:	74 6f                	je     401b0d <read_line+0x82>
  401a9e:	8b 35 d8 1a 20 00    	mov    0x201ad8(%rip),%esi        # 60357c <num_input_strings>
  401aa4:	48 63 c6             	movslq %esi,%rax
  401aa7:	48 8d 14 80          	lea    (%rax,%rax,4),%rdx
  401aab:	48 c1 e2 04          	shl    $0x4,%rdx
  401aaf:	48 8d 05 ea 1a 20 00 	lea    0x201aea(%rip),%rax        # 6035a0 <input_strings>
  401ab6:	48 01 c2             	add    %rax,%rdx
  401ab9:	b8 00 00 00 00       	mov    $0x0,%eax
  401abe:	48 c7 c1 ff ff ff ff 	mov    $0xffffffffffffffff,%rcx
  401ac5:	48 89 d7             	mov    %rdx,%rdi
  401ac8:	f2 ae                	repnz scas %es:(%rdi),%al
  401aca:	48 f7 d1             	not    %rcx
  401acd:	48 83 e9 01          	sub    $0x1,%rcx
  401ad1:	83 f9 4f             	cmp    $0x4f,%ecx
  401ad4:	0f 84 a1 00 00 00    	je     401b7b <read_line+0xf0>
  401ada:	83 e9 01             	sub    $0x1,%ecx
  401add:	48 63 c9             	movslq %ecx,%rcx
  401ae0:	48 63 c6             	movslq %esi,%rax
  401ae3:	48 8d 04 80          	lea    (%rax,%rax,4),%rax
  401ae7:	48 c1 e0 04          	shl    $0x4,%rax
  401aeb:	48 89 c7             	mov    %rax,%rdi
  401aee:	48 8d 05 ab 1a 20 00 	lea    0x201aab(%rip),%rax        # 6035a0 <input_strings>
  401af5:	48 01 f8             	add    %rdi,%rax
  401af8:	c6 04 08 00          	movb   $0x0,(%rax,%rcx,1)
  401afc:	83 c6 01             	add    $0x1,%esi
  401aff:	89 35 77 1a 20 00    	mov    %esi,0x201a77(%rip)        # 60357c <num_input_strings>
  401b05:	48 89 d0             	mov    %rdx,%rax
  401b08:	48 83 c4 08          	add    $0x8,%rsp
  401b0c:	c3                   	retq   
  401b0d:	48 8b 05 5c 1a 20 00 	mov    0x201a5c(%rip),%rax        # 603570 <stdin@@GLIBC_2.2.5>
  401b14:	48 39 05 65 1a 20 00 	cmp    %rax,0x201a65(%rip)        # 603580 <infile>
  401b1b:	74 43                	je     401b60 <read_line+0xd5>
  401b1d:	48 8d 3d 66 06 00 00 	lea    0x666(%rip),%rdi        # 40218a <array.3074+0x35a>
  401b24:	e8 37 f0 ff ff       	callq  400b60 <getenv@plt>
  401b29:	48 85 c0             	test   %rax,%rax
  401b2c:	75 43                	jne    401b71 <read_line+0xe6>
  401b2e:	48 8b 05 3b 1a 20 00 	mov    0x201a3b(%rip),%rax        # 603570 <stdin@@GLIBC_2.2.5>
  401b35:	48 89 05 44 1a 20 00 	mov    %rax,0x201a44(%rip)        # 603580 <infile>
  401b3c:	b8 00 00 00 00       	mov    $0x0,%eax
  401b41:	e8 57 f8 ff ff       	callq  40139d <skip>
  401b46:	48 85 c0             	test   %rax,%rax
  401b49:	0f 85 4f ff ff ff    	jne    401a9e <read_line+0x13>
  401b4f:	48 8d 3d 16 06 00 00 	lea    0x616(%rip),%rdi        # 40216c <array.3074+0x33c>
  401b56:	e8 35 f0 ff ff       	callq  400b90 <puts@plt>
  401b5b:	e8 ae fe ff ff       	callq  401a0e <explode_bomb>
  401b60:	48 8d 3d 05 06 00 00 	lea    0x605(%rip),%rdi        # 40216c <array.3074+0x33c>
  401b67:	e8 24 f0 ff ff       	callq  400b90 <puts@plt>
  401b6c:	e8 9d fe ff ff       	callq  401a0e <explode_bomb>
  401b71:	bf 00 00 00 00       	mov    $0x0,%edi
  401b76:	e8 75 f1 ff ff       	callq  400cf0 <exit@plt>
  401b7b:	48 8d 3d 13 06 00 00 	lea    0x613(%rip),%rdi        # 402195 <array.3074+0x365>
  401b82:	e8 09 f0 ff ff       	callq  400b90 <puts@plt>
  401b87:	e8 82 fe ff ff       	callq  401a0e <explode_bomb>

0000000000401b8c <phase_defused>:
  401b8c:	48 83 ec 78          	sub    $0x78,%rsp
  401b90:	bf 01 00 00 00       	mov    $0x1,%edi
  401b95:	e8 b1 f8 ff ff       	callq  40144b <send_msg>
  401b9a:	83 3d db 19 20 00 03 	cmpl   $0x3,0x2019db(%rip)        # 60357c <num_input_strings>
  401ba1:	74 05                	je     401ba8 <phase_defused+0x1c>
  401ba3:	48 83 c4 78          	add    $0x78,%rsp
  401ba7:	c3                   	retq   
  401ba8:	48 8d 4c 24 18       	lea    0x18(%rsp),%rcx
  401bad:	48 8d 54 24 1c       	lea    0x1c(%rsp),%rdx
  401bb2:	48 83 ec 08          	sub    $0x8,%rsp
  401bb6:	48 8d 44 24 28       	lea    0x28(%rsp),%rax
  401bbb:	50                   	push   %rax
  401bbc:	48 8d 44 24 18       	lea    0x18(%rsp),%rax
  401bc1:	50                   	push   %rax
  401bc2:	48 8d 44 24 24       	lea    0x24(%rsp),%rax
  401bc7:	50                   	push   %rax
  401bc8:	4c 8d 4c 24 30       	lea    0x30(%rsp),%r9
  401bcd:	4c 8d 44 24 34       	lea    0x34(%rsp),%r8
  401bd2:	48 8d 35 d7 05 00 00 	lea    0x5d7(%rip),%rsi        # 4021b0 <array.3074+0x380>
  401bd9:	48 8d 3d 10 1a 20 00 	lea    0x201a10(%rip),%rdi        # 6035f0 <input_strings+0x50>
  401be0:	b8 00 00 00 00       	mov    $0x0,%eax
  401be5:	e8 a6 f0 ff ff       	callq  400c90 <__isoc99_sscanf@plt>
  401bea:	48 83 c4 20          	add    $0x20,%rsp
  401bee:	83 f8 07             	cmp    $0x7,%eax
  401bf1:	74 1a                	je     401c0d <phase_defused+0x81>
  401bf3:	48 8d 3d 06 03 00 00 	lea    0x306(%rip),%rdi        # 401f00 <array.3074+0xd0>
  401bfa:	e8 91 ef ff ff       	callq  400b90 <puts@plt>
  401bff:	48 8d 3d 2a 03 00 00 	lea    0x32a(%rip),%rdi        # 401f30 <array.3074+0x100>
  401c06:	e8 85 ef ff ff       	callq  400b90 <puts@plt>
  401c0b:	eb 96                	jmp    401ba3 <phase_defused+0x17>
  401c0d:	48 8d 7c 24 20       	lea    0x20(%rsp),%rdi
  401c12:	48 8d 35 ac 05 00 00 	lea    0x5ac(%rip),%rsi        # 4021c5 <array.3074+0x395>
  401c19:	e8 e0 f5 ff ff       	callq  4011fe <strings_not_equal>
  401c1e:	85 c0                	test   %eax,%eax
  401c20:	75 d1                	jne    401bf3 <phase_defused+0x67>
  401c22:	48 8d 3d 77 02 00 00 	lea    0x277(%rip),%rdi        # 401ea0 <array.3074+0x70>
  401c29:	e8 62 ef ff ff       	callq  400b90 <puts@plt>
  401c2e:	48 8d 3d 93 02 00 00 	lea    0x293(%rip),%rdi        # 401ec8 <array.3074+0x98>
  401c35:	e8 56 ef ff ff       	callq  400b90 <puts@plt>
  401c3a:	b8 00 00 00 00       	mov    $0x0,%eax
  401c3f:	e8 b3 f4 ff ff       	callq  4010f7 <secret_phase>
  401c44:	eb ad                	jmp    401bf3 <phase_defused+0x67>
  401c46:	66 2e 0f 1f 84 00 00 	nopw   %cs:0x0(%rax,%rax,1)
  401c4d:	00 00 00 

0000000000401c50 <__libc_csu_init>:
  401c50:	41 57                	push   %r15
  401c52:	41 56                	push   %r14
  401c54:	41 89 ff             	mov    %edi,%r15d
  401c57:	41 55                	push   %r13
  401c59:	41 54                	push   %r12
  401c5b:	4c 8d 25 a6 11 20 00 	lea    0x2011a6(%rip),%r12        # 602e08 <__frame_dummy_init_array_entry>
  401c62:	55                   	push   %rbp
  401c63:	48 8d 2d a6 11 20 00 	lea    0x2011a6(%rip),%rbp        # 602e10 <__init_array_end>
  401c6a:	53                   	push   %rbx
  401c6b:	49 89 f6             	mov    %rsi,%r14
  401c6e:	49 89 d5             	mov    %rdx,%r13
  401c71:	4c 29 e5             	sub    %r12,%rbp
  401c74:	48 83 ec 08          	sub    $0x8,%rsp
  401c78:	48 c1 fd 03          	sar    $0x3,%rbp
  401c7c:	e8 af ee ff ff       	callq  400b30 <_init>
  401c81:	48 85 ed             	test   %rbp,%rbp
  401c84:	74 20                	je     401ca6 <__libc_csu_init+0x56>
  401c86:	31 db                	xor    %ebx,%ebx
  401c88:	0f 1f 84 00 00 00 00 	nopl   0x0(%rax,%rax,1)
  401c8f:	00 
  401c90:	4c 89 ea             	mov    %r13,%rdx
  401c93:	4c 89 f6             	mov    %r14,%rsi
  401c96:	44 89 ff             	mov    %r15d,%edi
  401c99:	41 ff 14 dc          	callq  *(%r12,%rbx,8)
  401c9d:	48 83 c3 01          	add    $0x1,%rbx
  401ca1:	48 39 dd             	cmp    %rbx,%rbp
  401ca4:	75 ea                	jne    401c90 <__libc_csu_init+0x40>
  401ca6:	48 83 c4 08          	add    $0x8,%rsp
  401caa:	5b                   	pop    %rbx
  401cab:	5d                   	pop    %rbp
  401cac:	41 5c                	pop    %r12
  401cae:	41 5d                	pop    %r13
  401cb0:	41 5e                	pop    %r14
  401cb2:	41 5f                	pop    %r15
  401cb4:	c3                   	retq   
  401cb5:	90                   	nop
  401cb6:	66 2e 0f 1f 84 00 00 	nopw   %cs:0x0(%rax,%rax,1)
  401cbd:	00 00 00 

0000000000401cc0 <__libc_csu_fini>:
  401cc0:	f3 c3                	repz retq 

Disassembly of section .fini:

0000000000401cc4 <_fini>:
  401cc4:	48 83 ec 08          	sub    $0x8,%rsp
  401cc8:	48 83 c4 08          	add    $0x8,%rsp
  401ccc:	c3                   	retq   
